; ModuleID = '58/699.c'
source_filename = "58/699.c"
target datalayout = "e-m:e-p270:32:32-p271:32:32-p272:64:64-i64:64-f80:128-n8:16:32:64-S128"
target triple = "x86_64-pc-linux-gnu"

@.str = private unnamed_addr constant [4 x i8] c"%d\0A\00", align 1

; Function Attrs: noinline nounwind uwtable
define dso_local i32 @islegal(i8* %0, i32 %1) #0 {
  %3 = alloca i8*, align 8
  %4 = alloca i32, align 4
  %5 = alloca i32, align 4
  %6 = alloca i32, align 4
  %7 = alloca i8*, align 8
  store i8* %0, i8** %3, align 8
  store i32 %1, i32* %4, align 4
  store i32 1, i32* %6, align 4
  %8 = load i8*, i8** %3, align 8
  store i8* %8, i8** %7, align 8
  %9 = load i8*, i8** %7, align 8
  %10 = load i8, i8* %9, align 1
  %11 = sext i8 %10 to i32
  %12 = icmp eq i32 %11, 95
  br i1 %12, label %19, label %13

13:                                               ; preds = %2
  %14 = load i8*, i8** %7, align 8
  %15 = load i8, i8* %14, align 1
  %16 = sext i8 %15 to i32
  %17 = call i32 @isalpha(i32 %16) #3
  %18 = icmp ne i32 %17, 0
  br i1 %18, label %19, label %49

19:                                               ; preds = %13, %2
  store i32 1, i32* %5, align 4
  br label %20

20:                                               ; preds = %45, %19
  %21 = load i32, i32* %5, align 4
  %22 = load i32, i32* %4, align 4
  %23 = icmp slt i32 %21, %22
  br i1 %23, label %24, label %48

24:                                               ; preds = %20
  %25 = load i8*, i8** %7, align 8
  %26 = getelementptr inbounds i8, i8* %25, i64 1
  store i8* %26, i8** %7, align 8
  %27 = load i8*, i8** %7, align 8
  %28 = load i8, i8* %27, align 1
  %29 = sext i8 %28 to i32
  %30 = icmp ne i32 %29, 95
  br i1 %30, label %31, label %44

31:                                               ; preds = %24
  %32 = load i8*, i8** %7, align 8
  %33 = load i8, i8* %32, align 1
  %34 = sext i8 %33 to i32
  %35 = call i32 @isalpha(i32 %34) #3
  %36 = icmp eq i32 %35, 0
  br i1 %36, label %37, label %44

37:                                               ; preds = %31
  %38 = load i8*, i8** %7, align 8
  %39 = load i8, i8* %38, align 1
  %40 = sext i8 %39 to i32
  %41 = call i32 @isdigit(i32 %40) #3
  %42 = icmp eq i32 %41, 0
  br i1 %42, label %43, label %44

43:                                               ; preds = %37
  store i32 0, i32* %6, align 4
  br label %48

44:                                               ; preds = %37, %31, %24
  br label %45

45:                                               ; preds = %44
  %46 = load i32, i32* %5, align 4
  %47 = add nsw i32 %46, 1
  store i32 %47, i32* %5, align 4
  br label %20

48:                                               ; preds = %43, %20
  br label %50

49:                                               ; preds = %13
  store i32 0, i32* %6, align 4
  br label %50

50:                                               ; preds = %49, %48
  %51 = load i32, i32* %6, align 4
  ret i32 %51
}

; Function Attrs: nounwind readonly
declare dso_local i32 @isalpha(i32) #1

; Function Attrs: nounwind readonly
declare dso_local i32 @isdigit(i32) #1

; Function Attrs: noinline nounwind uwtable
define dso_local i32 @main() #0 {
  %1 = alloca i32, align 4
  %2 = alloca i32, align 4
  %3 = alloca i32, align 4
  %4 = alloca i32, align 4
  %5 = alloca [80000 x i8], align 16
  store i32 0, i32* %1, align 4
  %6 = getelementptr inbounds [80000 x i8], [80000 x i8]* %5, i64 0, i64 0
  %7 = call i32 (i8*, ...) bitcast (i32 (...)* @gets to i32 (i8*, ...)*)(i8* %6)
  %8 = getelementptr inbounds [80000 x i8], [80000 x i8]* %5, i64 0, i64 0
  %9 = call i32 @atoi(i8* %8) #3
  store i32 %9, i32* %2, align 4
  store i32 0, i32* %3, align 4
  br label %10

10:                                               ; preds = %24, %0
  %11 = load i32, i32* %3, align 4
  %12 = load i32, i32* %2, align 4
  %13 = icmp slt i32 %11, %12
  br i1 %13, label %14, label %27

14:                                               ; preds = %10
  %15 = getelementptr inbounds [80000 x i8], [80000 x i8]* %5, i64 0, i64 0
  %16 = call i32 (i8*, ...) bitcast (i32 (...)* @gets to i32 (i8*, ...)*)(i8* %15)
  %17 = getelementptr inbounds [80000 x i8], [80000 x i8]* %5, i64 0, i64 0
  %18 = call i64 @strlen(i8* %17) #3
  %19 = trunc i64 %18 to i32
  store i32 %19, i32* %4, align 4
  %20 = getelementptr inbounds [80000 x i8], [80000 x i8]* %5, i64 0, i64 0
  %21 = load i32, i32* %4, align 4
  %22 = call i32 @islegal(i8* %20, i32 %21)
  %23 = call i32 (i8*, ...) @printf(i8* getelementptr inbounds ([4 x i8], [4 x i8]* @.str, i64 0, i64 0), i32 %22)
  br label %24

24:                                               ; preds = %14
  %25 = load i32, i32* %3, align 4
  %26 = add nsw i32 %25, 1
  store i32 %26, i32* %3, align 4
  br label %10

27:                                               ; preds = %10
  ret i32 0
}

declare dso_local i32 @gets(...) #2

; Function Attrs: nounwind readonly
declare dso_local i32 @atoi(i8*) #1

; Function Attrs: nounwind readonly
declare dso_local i64 @strlen(i8*) #1

declare dso_local i32 @printf(i8*, ...) #2


!llvm.module.flags = !{!0}
!llvm.ident = !{!1}

!0 = !{i32 1, !"wchar_size", i32 4}
!1 = !{!"clang version 10.0.0-4ubuntu1 "}
